target datalayout = "e-m:e-p270:32:32-p271:32:32-p272:64:64-i64:64-i128:128-f80:128-n8:16:32:64-S128"
target triple = "x86_64-pc-linux-gnu"

%struct.x509_attributes_st = type { ptr, ptr }

@X509_ATTRIBUTE_it.local_it = internal constant { i8, [7 x i8], i64, ptr, i64, ptr, i64, ptr } { i8 1, [7 x i8] zeroinitializer, i64 16, ptr @X509_ATTRIBUTE_seq_tt, i64 2, ptr null, i64 16, ptr @.str }, align 8

; Function Attrs: nounwind uwtable
define ptr @X509_ATTRIBUTE_it() #0 {
  ret ptr @X509_ATTRIBUTE_it.local_it
}

; Function Attrs: nounwind uwtable
define void @X509_ATTRIBUTE_free(ptr noundef %0) #0 {
  %2 = alloca ptr, align 8
  store ptr %0, ptr %2, align 8, !tbaa !12
  %3 = load ptr, ptr %2, align 8, !tbaa !12
  %4 = call ptr @X509_ATTRIBUTE_it()
  call void @ASN1_item_free(ptr noundef %3, ptr noundef %4)
  ret void
}

; Function Attrs: inlinehint nounwind uwtable
define internal ptr @ossl_check_ASN1_TYPE_type(ptr noundef %0) #3 {
  %2 = alloca ptr, align 8
  store ptr %0, ptr %2, align 8, !tbaa !17
  %3 = load ptr, ptr %2, align 8, !tbaa !17
  ret ptr %3
}

; Function Attrs: inlinehint nounwind uwtable
define internal ptr @ossl_check_ASN1_TYPE_sk_type(ptr noundef %0) #3 {
  %2 = alloca ptr, align 8
  store ptr %0, ptr %2, align 8, !tbaa !25
  %3 = load ptr, ptr %2, align 8, !tbaa !25
  ret ptr %3
}

; Function Attrs: nounwind uwtable
define ptr @X509_ATTRIBUTE_new() #0 {
  %1 = call ptr @X509_ATTRIBUTE_it()
  %2 = call ptr @ASN1_item_new(ptr noundef %1)
  ret ptr %2
}

; Function Attrs: nounwind uwtable
define ptr @X509_ATTRIBUTE_create(i32 noundef %0, i32 noundef %1, ptr noundef %2) #0 {
  %4 = alloca ptr, align 8
  %5 = alloca i32, align 4
  %6 = alloca i32, align 4
  %7 = alloca ptr, align 8
  %8 = alloca ptr, align 8
  %9 = alloca ptr, align 8
  %10 = alloca ptr, align 8
  %11 = alloca i32, align 4
  store i32 %0, ptr %5, align 4, !tbaa !14
  store i32 %1, ptr %6, align 4, !tbaa !14
  store ptr %2, ptr %7, align 8, !tbaa !16
  call void @llvm.lifetime.start.p0(i64 8, ptr %8) #4
  store ptr null, ptr %8, align 8, !tbaa !12
  call void @llvm.lifetime.start.p0(i64 8, ptr %9) #4
  store ptr null, ptr %9, align 8, !tbaa !17
  call void @llvm.lifetime.start.p0(i64 8, ptr %10) #4
  %12 = load i32, ptr %5, align 4, !tbaa !14
  %13 = call ptr @OBJ_nid2obj(i32 noundef %12)
  store ptr %13, ptr %10, align 8, !tbaa !19
  %14 = icmp eq ptr %13, null
  br i1 %14, label %15, label %16

15:                                               ; preds = %3
  store ptr null, ptr %4, align 8
  store i32 1, ptr %11, align 4
  br label %45

16:                                               ; preds = %3
  %17 = call ptr @X509_ATTRIBUTE_new()
  store ptr %17, ptr %8, align 8, !tbaa !12
  %18 = icmp eq ptr %17, null
  br i1 %18, label %19, label %20

19:                                               ; preds = %16
  store ptr null, ptr %4, align 8
  store i32 1, ptr %11, align 4
  br label %45

20:                                               ; preds = %16
  %21 = load ptr, ptr %10, align 8, !tbaa !19
  %22 = load ptr, ptr %8, align 8, !tbaa !12
  %23 = getelementptr inbounds nuw %struct.x509_attributes_st, ptr %22, i32 0, i32 0
  store ptr %21, ptr %23, align 8, !tbaa !21
  %24 = call ptr @ASN1_TYPE_new()
  store ptr %24, ptr %9, align 8, !tbaa !17
  %25 = icmp eq ptr %24, null
  br i1 %25, label %26, label %27

26:                                               ; preds = %20
  br label %42

27:                                               ; preds = %20
  %28 = load ptr, ptr %8, align 8, !tbaa !12
  %29 = getelementptr inbounds nuw %struct.x509_attributes_st, ptr %28, i32 0, i32 1
  %30 = load ptr, ptr %29, align 8, !tbaa !24
  %31 = call ptr @ossl_check_ASN1_TYPE_sk_type(ptr noundef %30)
  %32 = load ptr, ptr %9, align 8, !tbaa !17
  %33 = call ptr @ossl_check_ASN1_TYPE_type(ptr noundef %32)
  %34 = call i32 @OPENSSL_sk_push(ptr noundef %31, ptr noundef %33)
  %35 = icmp ne i32 %34, 0
  br i1 %35, label %37, label %36

36:                                               ; preds = %27
  br label %42

37:                                               ; preds = %27
  %38 = load ptr, ptr %9, align 8, !tbaa !17
  %39 = load i32, ptr %6, align 4, !tbaa !14
  %40 = load ptr, ptr %7, align 8, !tbaa !16
  call void @ASN1_TYPE_set(ptr noundef %38, i32 noundef %39, ptr noundef %40)
  %41 = load ptr, ptr %8, align 8, !tbaa !12
  store ptr %41, ptr %4, align 8
  store i32 1, ptr %11, align 4
  br label %45

42:                                               ; preds = %36, %26
  %43 = load ptr, ptr %8, align 8, !tbaa !12
  call void @X509_ATTRIBUTE_free(ptr noundef %43)
  %44 = load ptr, ptr %9, align 8, !tbaa !17
  call void @ASN1_TYPE_free(ptr noundef %44)
  store ptr null, ptr %4, align 8
  store i32 1, ptr %11, align 4
  br label %45

45:                                               ; preds = %42, %37, %19, %15
  call void @llvm.lifetime.end.p0(i64 8, ptr %10) #4
  call void @llvm.lifetime.end.p0(i64 8, ptr %9) #4
  call void @llvm.lifetime.end.p0(i64 8, ptr %8) #4
  %46 = load ptr, ptr %4, align 8
  ret ptr %46
}