; Function Attrs: nounwind uwtable
define ptr @X509_ATTRIBUTE_create(i32 noundef %0, i32 noundef %1, ptr noundef %2) local_unnamed_addr #1 {
  %4 = tail call ptr @OBJ_nid2obj(i32 noundef %0) #4
  %5 = icmp eq ptr %4, null
  br i1 %5, label %18, label %6

6:                                                ; preds = %3
  %7 = tail call ptr @ASN1_item_new(ptr noundef nonnull @X509_ATTRIBUTE_it.local_it) #4
  %8 = icmp eq ptr %7, null
  br i1 %8, label %18, label %9

9:                                                ; preds = %6
  store ptr %4, ptr %7, align 8, !tbaa !3
  %10 = tail call ptr @ASN1_TYPE_new() #4
  %11 = icmp eq ptr %10, null
  br i1 %11, label %17, label %12

12:                                               ; preds = %9
  %13 = getelementptr inbounds nuw i8, ptr %7, i64 8
  %14 = load ptr, ptr %13, align 8, !tbaa !10
  %15 = tail call i32 @OPENSSL_sk_push(ptr noundef %14, ptr noundef nonnull %10) #4
  %.not = icmp eq i32 %15, 0
  br i1 %.not, label %17, label %16

16:                                               ; preds = %12
  tail call void @ASN1_TYPE_set(ptr noundef nonnull %10, i32 noundef %1, ptr noundef %2) #4
  br label %18

17:                                               ; preds = %12, %9
  tail call void @ASN1_item_free(ptr noundef nonnull %7, ptr noundef nonnull @X509_ATTRIBUTE_it.local_it) #4
  tail call void @ASN1_TYPE_free(ptr noundef %10) #4
  br label %18

18:                                               ; preds = %6, %3, %17, %16
  %.0 = phi ptr [ null, %17 ], [ %7, %16 ], [ null, %3 ], [ null, %6 ]
  ret ptr %.0
}